Certificate:
    Data:
        Version: 3 (0x2)
        Serial Number: 2 (0x2)
    Signature Algorithm: md5WithRSAEncryption
        Issuer: C=US, ST=WI, L=Madison, O=sampdb, OU=CA, CN=sampdb
        Validity
            Not Before: Apr  6 15:51:08 2013 GMT
            Not After : Apr  4 15:51:08 2023 GMT
        Subject: C=US, ST=WI, L=Madison, O=sampdb, OU=client, CN=sampdb
        Subject Public Key Info:
            Public Key Algorithm: rsaEncryption
                Public-Key: (1024 bit)
                Modulus:
                    00:be:7a:ab:74:a6:ab:cf:14:d2:a0:99:35:f9:d7:
                    03:04:c2:57:f1:5b:98:7e:5f:0e:91:13:15:e5:a4:
                    be:fc:3c:e8:16:0e:60:e5:d0:4e:6e:2f:99:98:16:
                    12:f8:85:20:6f:61:22:f0:41:8d:f9:cf:f8:2e:c9:
                    03:63:6b:4e:9e:ab:6e:70:30:91:23:bb:35:9e:09:
                    f7:87:83:32:cf:16:30:91:93:93:70:37:d3:9a:be:
                    2f:f3:0a:0c:ed:d2:06:f5:23:f3:ee:6a:8d:22:34:
                    57:76:30:0b:eb:00:15:b3:01:f2:9d:68:7e:57:de:
                    60:dc:2d:d6:42:97:a2:5f:f5
                Exponent: 65537 (0x10001)
        X509v3 extensions:
            X509v3 Basic Constraints: 
                CA:FALSE
            Netscape Comment: 
                OpenSSL Generated Certificate
            X509v3 Subject Key Identifier: 
                F3:35:F9:6C:87:E1:9C:B8:0D:4C:FC:E4:9A:64:37:71:B4:15:F1:98
            X509v3 Authority Key Identifier: 
                keyid:7B:C5:DF:64:7C:87:01:A7:29:5C:50:EC:01:82:D4:17:3B:D6:FF:37
                DirName:/C=US/ST=WI/L=Madison/O=sampdb/OU=CA/CN=sampdb
                serial:A7:41:75:50:44:F0:7B:83

    Signature Algorithm: md5WithRSAEncryption
         1e:0b:85:d2:d0:f9:57:f0:04:92:be:e1:76:c6:d2:0f:1a:9d:
         31:1f:b7:a6:80:fe:96:c7:bd:e5:e8:9d:2c:f1:24:74:25:c8:
         61:02:32:20:8e:e4:fb:a8:c8:54:7f:f0:f4:07:42:5c:93:6c:
         d2:5d:bc:f5:47:ef:84:f6:20:2f:7a:ea:f2:a0:80:58:ca:9c:
         79:46:56:22:9e:29:df:ab:09:78:4c:46:2f:95:52:33:a0:b5:
         dd:87:48:ec:ec:f2:4e:0f:84:65:84:1d:32:26:4d:93:c3:07:
         b2:d5:09:dd:55:5a:33:16:c8:e0:41:4f:68:bd:b9:d9:61:07:
         21:01
-----BEGIN CERTIFICATE-----
MIIDHDCCAoWgAwIBAgIBAjANBgkqhkiG9w0BAQQFADBbMQswCQYDVQQGEwJVUzEL
MAkGA1UECBMCV0kxEDAOBgNVBAcTB01hZGlzb24xDzANBgNVBAoTBnNhbXBkYjEL
MAkGA1UECxMCQ0ExDzANBgNVBAMTBnNhbXBkYjAeFw0xMzA0MDYxNTUxMDhaFw0y
MzA0MDQxNTUxMDhaMF8xCzAJBgNVBAYTAlVTMQswCQYDVQQIEwJXSTEQMA4GA1UE
BxMHTWFkaXNvbjEPMA0GA1UEChMGc2FtcGRiMQ8wDQYDVQQLEwZjbGllbnQxDzAN
BgNVBAMTBnNhbXBkYjCBnzANBgkqhkiG9w0BAQEFAAOBjQAwgYkCgYEAvnqrdKar
zxTSoJk1+dcDBMJX8VuYfl8OkRMV5aS+/DzoFg5g5dBObi+ZmBYS+IUgb2Ei8EGN
+c/4LskDY2tOnqtucDCRI7s1ngn3h4MyzxYwkZOTcDfTmr4v8woM7dIG9SPz7mqN
IjRXdjAL6wAVswHynWh+V95g3C3WQpeiX/UCAwEAAaOB6zCB6DAJBgNVHRMEAjAA
MCwGCWCGSAGG+EIBDQQfFh1PcGVuU1NMIEdlbmVyYXRlZCBDZXJ0aWZpY2F0ZTAd
BgNVHQ4EFgQU8zX5bIfhnLgNTPzkmmQ3cbQV8ZgwgY0GA1UdIwSBhTCBgoAUe8Xf
ZHyHAacpXFDsAYLUFzvW/zehX6RdMFsxCzAJBgNVBAYTAlVTMQswCQYDVQQIEwJX
STEQMA4GA1UEBxMHTWFkaXNvbjEPMA0GA1UEChMGc2FtcGRiMQswCQYDVQQLEwJD
QTEPMA0GA1UEAxMGc2FtcGRiggkAp0F1UETwe4MwDQYJKoZIhvcNAQEEBQADgYEA
HguF0tD5V/AEkr7hdsbSDxqdMR+3poD+lse95eidLPEkdCXIYQIyII7k+6jIVH/w
9AdCXJNs0l289UfvhPYgL3rq8qCAWMqceUZWIp4p36sJeExGL5VSM6C13YdI7Ozy
Tg+EZYQdMiZNk8MHstUJ3VVaMxbI4EFPaL252WEHIQE=
-----END CERTIFICATE-----
