Certificate:
    Data:
        Version: 3 (0x2)
        Serial Number: 1 (0x1)
    Signature Algorithm: md5WithRSAEncryption
        Issuer: C=US, ST=WI, L=Madison, O=sampdb, OU=CA, CN=sampdb
        Validity
            Not Before: Apr  6 15:51:08 2013 GMT
            Not After : Apr  4 15:51:08 2023 GMT
        Subject: C=US, ST=WI, L=Madison, O=sampdb, OU=server, CN=sampdb
        Subject Public Key Info:
            Public Key Algorithm: rsaEncryption
                Public-Key: (1024 bit)
                Modulus:
                    00:d2:d8:9b:e1:8f:0c:71:d8:50:23:b4:f3:04:8b:
                    46:f5:1b:a9:a1:ce:1b:ad:bf:51:7b:3d:58:36:13:
                    93:23:9a:ac:9f:8e:61:d9:82:96:49:20:66:68:ba:
                    9c:90:62:56:d5:9d:07:ec:eb:08:bb:0d:b8:b8:6d:
                    8a:22:52:b3:60:ff:cc:1b:61:77:d7:18:24:2c:72:
                    15:f9:d6:c6:a1:a2:53:d0:13:dc:9d:da:82:b5:c0:
                    61:11:1f:80:4b:8b:6b:98:ff:a4:ac:e5:1f:ab:ff:
                    fe:f9:55:ac:90:06:e3:27:a4:33:95:68:ad:0e:e4:
                    d4:b2:a8:cf:ed:8c:aa:a6:49
                Exponent: 65537 (0x10001)
        X509v3 extensions:
            X509v3 Basic Constraints: 
                CA:FALSE
            Netscape Comment: 
                OpenSSL Generated Certificate
            X509v3 Subject Key Identifier: 
                3B:6E:13:5F:A1:73:EF:7C:D7:6B:E7:74:D1:6B:21:74:68:7D:28:55
            X509v3 Authority Key Identifier: 
                keyid:7B:C5:DF:64:7C:87:01:A7:29:5C:50:EC:01:82:D4:17:3B:D6:FF:37
                DirName:/C=US/ST=WI/L=Madison/O=sampdb/OU=CA/CN=sampdb
                serial:A7:41:75:50:44:F0:7B:83

    Signature Algorithm: md5WithRSAEncryption
         04:02:1a:9f:d8:9c:89:f3:b0:7e:39:68:08:92:6a:bc:f4:53:
         31:ad:63:a7:ee:50:e1:03:0b:90:4e:fb:a4:30:25:15:3b:cc:
         5c:f7:94:d4:49:b5:61:51:fd:3f:d1:94:fa:c4:88:3b:9f:66:
         ca:d4:93:81:b4:0e:07:3a:c2:ba:43:30:b8:83:81:3e:c2:a1:
         1d:23:c9:44:07:ff:fd:eb:69:ac:06:54:e6:1d:a4:cc:6c:a0:
         d8:d9:2d:5d:ac:a1:89:f6:82:35:02:b2:9d:5c:04:a2:8d:27:
         de:7f:d1:b5:d0:2a:9f:0f:81:7f:bd:11:f3:fd:03:e3:a0:1b:
         d8:0d
-----BEGIN CERTIFICATE-----
MIIDHDCCAoWgAwIBAgIBATANBgkqhkiG9w0BAQQFADBbMQswCQYDVQQGEwJVUzEL
MAkGA1UECBMCV0kxEDAOBgNVBAcTB01hZGlzb24xDzANBgNVBAoTBnNhbXBkYjEL
MAkGA1UECxMCQ0ExDzANBgNVBAMTBnNhbXBkYjAeFw0xMzA0MDYxNTUxMDhaFw0y
MzA0MDQxNTUxMDhaMF8xCzAJBgNVBAYTAlVTMQswCQYDVQQIEwJXSTEQMA4GA1UE
BxMHTWFkaXNvbjEPMA0GA1UEChMGc2FtcGRiMQ8wDQYDVQQLEwZzZXJ2ZXIxDzAN
BgNVBAMTBnNhbXBkYjCBnzANBgkqhkiG9w0BAQEFAAOBjQAwgYkCgYEA0tib4Y8M
cdhQI7TzBItG9Rupoc4brb9Rez1YNhOTI5qsn45h2YKWSSBmaLqckGJW1Z0H7OsI
uw24uG2KIlKzYP/MG2F31xgkLHIV+dbGoaJT0BPcndqCtcBhER+AS4trmP+krOUf
q//++VWskAbjJ6QzlWitDuTUsqjP7YyqpkkCAwEAAaOB6zCB6DAJBgNVHRMEAjAA
MCwGCWCGSAGG+EIBDQQfFh1PcGVuU1NMIEdlbmVyYXRlZCBDZXJ0aWZpY2F0ZTAd
BgNVHQ4EFgQUO24TX6Fz73zXa+d00WshdGh9KFUwgY0GA1UdIwSBhTCBgoAUe8Xf
ZHyHAacpXFDsAYLUFzvW/zehX6RdMFsxCzAJBgNVBAYTAlVTMQswCQYDVQQIEwJX
STEQMA4GA1UEBxMHTWFkaXNvbjEPMA0GA1UEChMGc2FtcGRiMQswCQYDVQQLEwJD
QTEPMA0GA1UEAxMGc2FtcGRiggkAp0F1UETwe4MwDQYJKoZIhvcNAQEEBQADgYEA
BAIan9icifOwfjloCJJqvPRTMa1jp+5Q4QMLkE77pDAlFTvMXPeU1Em1YVH9P9GU
+sSIO59mytSTgbQOBzrCukMwuIOBPsKhHSPJRAf//etprAZU5h2kzGyg2NktXayh
ifaCNQKynVwEoo0n3n/RtdAqnw+Bf70R8/0D46Ab2A0=
-----END CERTIFICATE-----
